target datalayout = "e-m:e-p270:32:32-p271:32:32-p272:64:64-i64:64-i128:128-f80:128-n8:16:32:64-S128"
target triple = "x86_64-pc-linux-gnu"

; Function Attrs: mustprogress nounwind uwtable
define hidden void @_ZN5osgeo4proj9operation21InverseTransformationD2Ev(ptr noundef nonnull align 8 dereferenceable(49) %0, ptr noundef %1) unnamed_addr #2 align 2 {
  %3 = alloca ptr, align 8
  %4 = alloca ptr, align 8
  store ptr %0, ptr %3, align 8
  store ptr %1, ptr %4, align 8
  %5 = load ptr, ptr %3, align 8
  %6 = load ptr, ptr %4, align 8
  %7 = getelementptr inbounds i8, ptr %5, i64 24
  %8 = getelementptr inbounds ptr, ptr %6, i64 13
  call void @_ZN5osgeo4proj9operation26InverseCoordinateOperationD2Ev(ptr noundef nonnull align 8 dereferenceable(25) %7, ptr noundef %8) #16
  %9 = getelementptr inbounds ptr, ptr %6, i64 1
  call void @_ZN5osgeo4proj9operation14TransformationD2Ev(ptr noundef nonnull align 8 dereferenceable(24) %5, ptr noundef %9) #16
  ret void
}

; Function Attrs: mustprogress nounwind uwtable
define hidden void @_ZN5osgeo4proj9operation21InverseTransformationD1Ev(ptr noundef nonnull align 8 dereferenceable(49) %0) unnamed_addr #2 align 2 {
  %2 = alloca ptr, align 8
  store ptr %0, ptr %2, align 8
  %3 = load ptr, ptr %2, align 8
  call void @_ZN5osgeo4proj9operation21InverseTransformationD2Ev(ptr noundef nonnull align 8 dereferenceable(49) %3, ptr noundef @_ZTTN5osgeo4proj9operation21InverseTransformationE) #16
  %4 = getelementptr inbounds i8, ptr %3, i64 56
  call void @_ZN5osgeo4proj9operation19CoordinateOperationD2Ev(ptr noundef nonnull align 8 dereferenceable(72) %4) #16
  ret void
}

; Function Attrs: nounwind uwtable
define hidden void @_ZTvn56_n24_N5osgeo4proj9operation21InverseTransformationD1Ev(ptr noundef %0) unnamed_addr #4 align 2 {
  %2 = alloca ptr, align 8
  store ptr %0, ptr %2, align 8
  %3 = load ptr, ptr %2, align 8
  %4 = getelementptr inbounds i8, ptr %3, i64 -56
  %5 = load ptr, ptr %4, align 8
  %6 = getelementptr inbounds i8, ptr %5, i64 -24
  %7 = load i64, ptr %6, align 8
  %8 = getelementptr inbounds i8, ptr %4, i64 %7
  tail call void @_ZN5osgeo4proj9operation21InverseTransformationD1Ev(ptr noundef nonnull align 8 dereferenceable(49) %8) #16
  ret void
}