; Function Attrs: nounwind uwtable
define hidden void @_ZTvn56_n24_N5osgeo4proj9operation21InverseTransformationD1Ev(ptr noundef %0) unnamed_addr #4 align 2 {
  %2 = getelementptr inbounds i8, ptr %0, i64 -56
  %3 = load ptr, ptr %2, align 8
  %4 = getelementptr inbounds i8, ptr %3, i64 -24
  %5 = load i64, ptr %4, align 8
  %6 = getelementptr inbounds i8, ptr %2, i64 %5
  %7 = getelementptr inbounds i8, ptr %6, i64 24
  tail call void @_ZN5osgeo4proj9operation26InverseCoordinateOperationD2Ev(ptr noundef nonnull align 8 dereferenceable(25) %7, ptr noundef nonnull getelementptr inbounds ([25 x ptr], ptr @_ZTTN5osgeo4proj9operation21InverseTransformationE, i64 0, i64 13)) #21
  tail call void @_ZN5osgeo4proj9operation14TransformationD2Ev(ptr noundef nonnull align 8 dereferenceable(24) %6, ptr noundef nonnull getelementptr inbounds ([25 x ptr], ptr @_ZTTN5osgeo4proj9operation21InverseTransformationE, i64 0, i64 1)) #21
  %8 = getelementptr inbounds i8, ptr %6, i64 56
  tail call void @_ZN5osgeo4proj9operation19CoordinateOperationD2Ev(ptr noundef nonnull align 8 dereferenceable(72) %8) #21
  ret void
}